target datalayout = "e-m:e-p270:32:32-p271:32:32-p272:64:64-i64:64-i128:128-f80:128-n8:16:32:64-S128"
target triple = "x86_64-pc-linux-gnu"

; Function Attrs: mustprogress nounwind uwtable
define noundef float @_ZN32pxrInternal_v0_24__pxrReserved__8pxr_half4half8overflowEv() #0 align 2 {
  %1 = alloca float, align 4
  %2 = alloca i32, align 4
  store volatile float 1.000000e+10, ptr %1, align 4
  store i32 0, ptr %2, align 4
  br label %3

3:                                                ; preds = %10, %0
  %4 = load i32, ptr %2, align 4
  %5 = icmp slt i32 %4, 10
  br i1 %5, label %6, label %13

6:                                                ; preds = %3
  %7 = load volatile float, ptr %1, align 4
  %8 = load volatile float, ptr %1, align 4
  %9 = fmul float %8, %7
  store volatile float %9, ptr %1, align 4
  br label %10

10:                                               ; preds = %6
  %11 = load i32, ptr %2, align 4
  %12 = add nsw i32 %11, 1
  store i32 %12, ptr %2, align 4
  br label %3, !llvm.loop !4

13:                                               ; preds = %3
  %14 = load volatile float, ptr %1, align 4
  ret float %14
}

; Function Attrs: mustprogress nounwind uwtable
define noundef signext i16 @_ZN32pxrInternal_v0_24__pxrReserved__8pxr_half4half7convertEi(i32 noundef %0) #0 align 2 {
  %2 = alloca i16, align 2
  %3 = alloca i32, align 4
  %4 = alloca i32, align 4
  %5 = alloca i32, align 4
  %6 = alloca i32, align 4
  %7 = alloca i32, align 4
  %8 = alloca i32, align 4
  %9 = alloca i32, align 4
  store i32 %0, ptr %3, align 4
  %10 = load i32, ptr %3, align 4
  %11 = ashr i32 %10, 16
  %12 = and i32 %11, 32768
  store i32 %12, ptr %4, align 4
  %13 = load i32, ptr %3, align 4
  %14 = ashr i32 %13, 23
  %15 = and i32 %14, 255
  %16 = sub nsw i32 %15, 112
  store i32 %16, ptr %5, align 4
  %17 = load i32, ptr %3, align 4
  %18 = and i32 %17, 8388607
  store i32 %18, ptr %6, align 4
  %19 = load i32, ptr %5, align 4
  %20 = icmp sle i32 %19, 0
  br i1 %20, label %21, label %51

21:                                               ; preds = %1
  %22 = load i32, ptr %5, align 4
  %23 = icmp slt i32 %22, -10
  br i1 %23, label %24, label %27

24:                                               ; preds = %21
  %25 = load i32, ptr %4, align 4
  %26 = trunc i32 %25 to i16
  store i16 %26, ptr %2, align 2
  br label %103

27:                                               ; preds = %21
  %28 = load i32, ptr %6, align 4
  %29 = or i32 %28, 8388608
  store i32 %29, ptr %6, align 4
  %30 = load i32, ptr %5, align 4
  %31 = sub nsw i32 14, %30
  store i32 %31, ptr %7, align 4
  %32 = load i32, ptr %7, align 4
  %33 = sub nsw i32 %32, 1
  %34 = shl i32 1, %33
  %35 = sub nsw i32 %34, 1
  store i32 %35, ptr %8, align 4
  %36 = load i32, ptr %6, align 4
  %37 = load i32, ptr %7, align 4
  %38 = ashr i32 %36, %37
  %39 = and i32 %38, 1
  store i32 %39, ptr %9, align 4
  %40 = load i32, ptr %6, align 4
  %41 = load i32, ptr %8, align 4
  %42 = add nsw i32 %40, %41
  %43 = load i32, ptr %9, align 4
  %44 = add nsw i32 %42, %43
  %45 = load i32, ptr %7, align 4
  %46 = ashr i32 %44, %45
  store i32 %46, ptr %6, align 4
  %47 = load i32, ptr %4, align 4
  %48 = load i32, ptr %6, align 4
  %49 = or i32 %47, %48
  %50 = trunc i32 %49 to i16
  store i16 %50, ptr %2, align 2
  br label %103

51:                                               ; preds = %1
  %52 = load i32, ptr %5, align 4
  %53 = icmp eq i32 %52, 143
  br i1 %53, label %54, label %73

54:                                               ; preds = %51
  %55 = load i32, ptr %6, align 4
  %56 = icmp eq i32 %55, 0
  br i1 %56, label %57, label %61

57:                                               ; preds = %54
  %58 = load i32, ptr %4, align 4
  %59 = or i32 %58, 31744
  %60 = trunc i32 %59 to i16
  store i16 %60, ptr %2, align 2
  br label %103

61:                                               ; preds = %54
  %62 = load i32, ptr %6, align 4
  %63 = ashr i32 %62, 13
  store i32 %63, ptr %6, align 4
  %64 = load i32, ptr %4, align 4
  %65 = or i32 %64, 31744
  %66 = load i32, ptr %6, align 4
  %67 = or i32 %65, %66
  %68 = load i32, ptr %6, align 4
  %69 = icmp eq i32 %68, 0
  %70 = zext i1 %69 to i32
  %71 = or i32 %67, %70
  %72 = trunc i32 %71 to i16
  store i16 %72, ptr %2, align 2
  br label %103

73:                                               ; preds = %51
  %74 = load i32, ptr %6, align 4
  %75 = add nsw i32 %74, 4095
  %76 = load i32, ptr %6, align 4
  %77 = ashr i32 %76, 13
  %78 = and i32 %77, 1
  %79 = add nsw i32 %75, %78
  store i32 %79, ptr %6, align 4
  %80 = load i32, ptr %6, align 4
  %81 = and i32 %80, 8388608
  %82 = icmp ne i32 %81, 0
  br i1 %82, label %83, label %86

83:                                               ; preds = %73
  store i32 0, ptr %6, align 4
  %84 = load i32, ptr %5, align 4
  %85 = add nsw i32 %84, 1
  store i32 %85, ptr %5, align 4
  br label %86

86:                                               ; preds = %83, %73
  %87 = load i32, ptr %5, align 4
  %88 = icmp sgt i32 %87, 30
  br i1 %88, label %89, label %94

89:                                               ; preds = %86
  %90 = call noundef float @_ZN32pxrInternal_v0_24__pxrReserved__8pxr_half4half8overflowEv()
  %91 = load i32, ptr %4, align 4
  %92 = or i32 %91, 31744
  %93 = trunc i32 %92 to i16
  store i16 %93, ptr %2, align 2
  br label %103

94:                                               ; preds = %86
  %95 = load i32, ptr %4, align 4
  %96 = load i32, ptr %5, align 4
  %97 = shl i32 %96, 10
  %98 = or i32 %95, %97
  %99 = load i32, ptr %6, align 4
  %100 = ashr i32 %99, 13
  %101 = or i32 %98, %100
  %102 = trunc i32 %101 to i16
  store i16 %102, ptr %2, align 2
  br label %103

103:                                              ; preds = %94, %89, %61, %57, %27, %24
  %104 = load i16, ptr %2, align 2
  ret i16 %104
}