; Function Attrs: mustprogress nofree norecurse nounwind memory(inaccessiblemem: readwrite) uwtable
define noundef signext i16 @_ZN32pxrInternal_v0_24__pxrReserved__8pxr_half4half7convertEi(i32 noundef %0) local_unnamed_addr #0 align 2 {
  %2 = alloca float, align 4
  %3 = lshr i32 %0, 16
  %4 = and i32 %3, 32768
  %5 = lshr i32 %0, 23
  %6 = and i32 %5, 255
  %7 = add nsw i32 %6, -112
  %8 = and i32 %0, 8388607
  %9 = icmp ult i32 %6, 113
  br i1 %9, label %10, label %26

10:                                               ; preds = %1
  %11 = icmp ult i32 %6, 102
  br i1 %11, label %12, label %14

12:                                               ; preds = %10
  %13 = trunc nuw i32 %4 to i16
  br label %62

14:                                               ; preds = %10
  %15 = or disjoint i32 %8, 8388608
  %16 = sub nuw nsw i32 126, %6
  %17 = sub nuw nsw i32 125, %6
  %notmask = shl nsw i32 -1, %17
  %18 = xor i32 %notmask, -1
  %19 = lshr i32 %15, %16
  %20 = and i32 %19, 1
  %21 = add nuw nsw i32 %15, %18
  %22 = add nuw nsw i32 %21, %20
  %23 = lshr i32 %22, %16
  %24 = or i32 %23, %4
  %25 = trunc nuw i32 %24 to i16
  br label %62

26:                                               ; preds = %1
  %27 = icmp eq i32 %7, 143
  br i1 %27, label %28, label %41

28:                                               ; preds = %26
  %29 = icmp eq i32 %8, 0
  br i1 %29, label %30, label %33

30:                                               ; preds = %28
  %31 = trunc nuw i32 %4 to i16
  %32 = or disjoint i16 %31, 31744
  br label %62

33:                                               ; preds = %28
  %34 = lshr i32 %8, 13
  %35 = icmp ult i32 %8, 8192
  %36 = zext i1 %35 to i32
  %37 = or i32 %34, %36
  %38 = or disjoint i32 %37, %4
  %39 = trunc nuw i32 %38 to i16
  %40 = or disjoint i16 %39, 31744
  br label %62

41:                                               ; preds = %26
  %42 = add nuw nsw i32 %8, 4095
  %43 = lshr i32 %0, 13
  %44 = and i32 %43, 1
  %45 = add nuw nsw i32 %42, %44
  %46 = and i32 %45, 8388608
  %.not = icmp eq i32 %46, 0
  %47 = add nsw i32 %6, -111
  %spec.select38 = select i1 %.not, i32 %7, i32 %47
  %48 = icmp ugt i32 %spec.select38, 30
  br i1 %48, label %49, label %55

49:                                               ; preds = %41
  call void @llvm.lifetime.start.p0(i64 4, ptr nonnull %2)
  store volatile float 1.000000e+10, ptr %2, align 4
  br label %50

50:                                               ; preds = %50, %49
  %.04.i = phi i32 [ 0, %49 ], [ %52, %50 ]
  %.0..0..0..0..0..0..i = load volatile float, ptr %2, align 4
  %.0..0..0..0..0..0.2.i = load volatile float, ptr %2, align 4
  %51 = fmul float %.0..0..0..0..0..0..i, %.0..0..0..0..0..0.2.i
  store volatile float %51, ptr %2, align 4
  %52 = add nuw nsw i32 %.04.i, 1
  %exitcond.not.i = icmp eq i32 %52, 10
  br i1 %exitcond.not.i, label %_ZN32pxrInternal_v0_24__pxrReserved__8pxr_half4half8overflowEv.exit, label %50, !llvm.loop !4

_ZN32pxrInternal_v0_24__pxrReserved__8pxr_half4half8overflowEv.exit: ; preds = %50
  %.0..0..0..0..0..0.3.i = load volatile float, ptr %2, align 4
  call void @llvm.lifetime.end.p0(i64 4, ptr nonnull %2)
  %53 = trunc nuw i32 %4 to i16
  %54 = or disjoint i16 %53, 31744
  br label %62

55:                                               ; preds = %41
  %56 = lshr i32 %45, 13
  %57 = shl nuw nsw i32 %spec.select38, 10
  %58 = select i1 %.not, i32 %56, i32 0
  %59 = or i32 %58, %57
  %60 = or i32 %59, %4
  %61 = trunc nuw i32 %60 to i16
  br label %62

62:                                               ; preds = %55, %_ZN32pxrInternal_v0_24__pxrReserved__8pxr_half4half8overflowEv.exit, %33, %30, %14, %12
  %.0 = phi i16 [ %13, %12 ], [ %25, %14 ], [ %32, %30 ], [ %40, %33 ], [ %54, %_ZN32pxrInternal_v0_24__pxrReserved__8pxr_half4half8overflowEv.exit ], [ %61, %55 ]
  ret i16 %.0
}